; ModuleID = '32/951.c'
source_filename = "32/951.c"
target datalayout = "e-m:e-p270:32:32-p271:32:32-p272:64:64-i64:64-f80:128-n8:16:32:64-S128"
target triple = "x86_64-pc-linux-gnu"

@.str = private unnamed_addr constant [3 x i8] c"%d\00", align 1
@.str.1 = private unnamed_addr constant [5 x i8] c"%s%s\00", align 1
@.str.2 = private unnamed_addr constant [3 x i8] c"%c\00", align 1
@.str.3 = private unnamed_addr constant [2 x i8] c"\0A\00", align 1

; Function Attrs: noinline nounwind uwtable
define dso_local void @main() #0 {
  %1 = alloca i32, align 4
  %2 = alloca [20 x [101 x i8]], align 16
  %3 = alloca [20 x [101 x i8]], align 16
  %4 = alloca i32, align 4
  %5 = alloca i32, align 4
  %6 = alloca i32, align 4
  %7 = alloca i32, align 4
  %8 = alloca i32, align 4
  %9 = alloca i32, align 4
  %10 = call i32 (i8*, ...) @__isoc99_scanf(i8* getelementptr inbounds ([3 x i8], [3 x i8]* @.str, i64 0, i64 0), i32* %1)
  store i32 1, i32* %4, align 4
  br label %11

11:                                               ; preds = %204, %0
  %12 = load i32, i32* %4, align 4
  %13 = load i32, i32* %1, align 4
  %14 = icmp sle i32 %12, %13
  br i1 %14, label %15, label %207

15:                                               ; preds = %11
  %16 = load i32, i32* %4, align 4
  %17 = sext i32 %16 to i64
  %18 = getelementptr inbounds [20 x [101 x i8]], [20 x [101 x i8]]* %2, i64 0, i64 %17
  %19 = load i32, i32* %4, align 4
  %20 = sext i32 %19 to i64
  %21 = getelementptr inbounds [20 x [101 x i8]], [20 x [101 x i8]]* %3, i64 0, i64 %20
  %22 = call i32 (i8*, ...) @__isoc99_scanf(i8* getelementptr inbounds ([5 x i8], [5 x i8]* @.str.1, i64 0, i64 0), [101 x i8]* %18, [101 x i8]* %21)
  %23 = load i32, i32* %4, align 4
  %24 = sext i32 %23 to i64
  %25 = getelementptr inbounds [20 x [101 x i8]], [20 x [101 x i8]]* %2, i64 0, i64 %24
  %26 = getelementptr inbounds [101 x i8], [101 x i8]* %25, i64 0, i64 0
  %27 = call i64 @strlen(i8* %26) #3
  %28 = trunc i64 %27 to i32
  store i32 %28, i32* %8, align 4
  %29 = load i32, i32* %4, align 4
  %30 = sext i32 %29 to i64
  %31 = getelementptr inbounds [20 x [101 x i8]], [20 x [101 x i8]]* %3, i64 0, i64 %30
  %32 = getelementptr inbounds [101 x i8], [101 x i8]* %31, i64 0, i64 0
  %33 = call i64 @strlen(i8* %32) #3
  %34 = trunc i64 %33 to i32
  store i32 %34, i32* %9, align 4
  br label %35

35:                                               ; preds = %155, %15
  %36 = load i32, i32* %9, align 4
  %37 = icmp sge i32 %36, 1
  br i1 %37, label %38, label %160

38:                                               ; preds = %35
  %39 = load i32, i32* %4, align 4
  %40 = sext i32 %39 to i64
  %41 = getelementptr inbounds [20 x [101 x i8]], [20 x [101 x i8]]* %2, i64 0, i64 %40
  %42 = load i32, i32* %8, align 4
  %43 = sub nsw i32 %42, 1
  %44 = sext i32 %43 to i64
  %45 = getelementptr inbounds [101 x i8], [101 x i8]* %41, i64 0, i64 %44
  %46 = load i8, i8* %45, align 1
  %47 = sext i8 %46 to i32
  %48 = load i32, i32* %4, align 4
  %49 = sext i32 %48 to i64
  %50 = getelementptr inbounds [20 x [101 x i8]], [20 x [101 x i8]]* %3, i64 0, i64 %49
  %51 = load i32, i32* %9, align 4
  %52 = sub nsw i32 %51, 1
  %53 = sext i32 %52 to i64
  %54 = getelementptr inbounds [101 x i8], [101 x i8]* %50, i64 0, i64 %53
  %55 = load i8, i8* %54, align 1
  %56 = sext i8 %55 to i32
  %57 = icmp sge i32 %47, %56
  br i1 %57, label %58, label %87

58:                                               ; preds = %38
  %59 = load i32, i32* %4, align 4
  %60 = sext i32 %59 to i64
  %61 = getelementptr inbounds [20 x [101 x i8]], [20 x [101 x i8]]* %2, i64 0, i64 %60
  %62 = load i32, i32* %8, align 4
  %63 = sub nsw i32 %62, 1
  %64 = sext i32 %63 to i64
  %65 = getelementptr inbounds [101 x i8], [101 x i8]* %61, i64 0, i64 %64
  %66 = load i8, i8* %65, align 1
  %67 = sext i8 %66 to i32
  %68 = load i32, i32* %4, align 4
  %69 = sext i32 %68 to i64
  %70 = getelementptr inbounds [20 x [101 x i8]], [20 x [101 x i8]]* %3, i64 0, i64 %69
  %71 = load i32, i32* %9, align 4
  %72 = sub nsw i32 %71, 1
  %73 = sext i32 %72 to i64
  %74 = getelementptr inbounds [101 x i8], [101 x i8]* %70, i64 0, i64 %73
  %75 = load i8, i8* %74, align 1
  %76 = sext i8 %75 to i32
  %77 = sub nsw i32 %67, %76
  %78 = add nsw i32 %77, 48
  %79 = trunc i32 %78 to i8
  %80 = load i32, i32* %4, align 4
  %81 = sext i32 %80 to i64
  %82 = getelementptr inbounds [20 x [101 x i8]], [20 x [101 x i8]]* %2, i64 0, i64 %81
  %83 = load i32, i32* %8, align 4
  %84 = sub nsw i32 %83, 1
  %85 = sext i32 %84 to i64
  %86 = getelementptr inbounds [101 x i8], [101 x i8]* %82, i64 0, i64 %85
  store i8 %79, i8* %86, align 1
  br label %155

87:                                               ; preds = %38
  %88 = load i32, i32* %8, align 4
  %89 = sub nsw i32 %88, 2
  store i32 %89, i32* %5, align 4
  br label %90

90:                                               ; preds = %100, %87
  %91 = load i32, i32* %4, align 4
  %92 = sext i32 %91 to i64
  %93 = getelementptr inbounds [20 x [101 x i8]], [20 x [101 x i8]]* %2, i64 0, i64 %92
  %94 = load i32, i32* %5, align 4
  %95 = sext i32 %94 to i64
  %96 = getelementptr inbounds [101 x i8], [101 x i8]* %93, i64 0, i64 %95
  %97 = load i8, i8* %96, align 1
  %98 = sext i8 %97 to i32
  %99 = icmp eq i32 %98, 48
  br i1 %99, label %100, label %109

100:                                              ; preds = %90
  %101 = load i32, i32* %4, align 4
  %102 = sext i32 %101 to i64
  %103 = getelementptr inbounds [20 x [101 x i8]], [20 x [101 x i8]]* %2, i64 0, i64 %102
  %104 = load i32, i32* %5, align 4
  %105 = sext i32 %104 to i64
  %106 = getelementptr inbounds [101 x i8], [101 x i8]* %103, i64 0, i64 %105
  store i8 57, i8* %106, align 1
  %107 = load i32, i32* %5, align 4
  %108 = add nsw i32 %107, -1
  store i32 %108, i32* %5, align 4
  br label %90

109:                                              ; preds = %90
  %110 = load i32, i32* %4, align 4
  %111 = sext i32 %110 to i64
  %112 = getelementptr inbounds [20 x [101 x i8]], [20 x [101 x i8]]* %2, i64 0, i64 %111
  %113 = load i32, i32* %5, align 4
  %114 = sext i32 %113 to i64
  %115 = getelementptr inbounds [101 x i8], [101 x i8]* %112, i64 0, i64 %114
  %116 = load i8, i8* %115, align 1
  %117 = sext i8 %116 to i32
  %118 = sub nsw i32 %117, 1
  %119 = trunc i32 %118 to i8
  %120 = load i32, i32* %4, align 4
  %121 = sext i32 %120 to i64
  %122 = getelementptr inbounds [20 x [101 x i8]], [20 x [101 x i8]]* %2, i64 0, i64 %121
  %123 = load i32, i32* %5, align 4
  %124 = sext i32 %123 to i64
  %125 = getelementptr inbounds [101 x i8], [101 x i8]* %122, i64 0, i64 %124
  store i8 %119, i8* %125, align 1
  %126 = load i32, i32* %4, align 4
  %127 = sext i32 %126 to i64
  %128 = getelementptr inbounds [20 x [101 x i8]], [20 x [101 x i8]]* %2, i64 0, i64 %127
  %129 = load i32, i32* %8, align 4
  %130 = sub nsw i32 %129, 1
  %131 = sext i32 %130 to i64
  %132 = getelementptr inbounds [101 x i8], [101 x i8]* %128, i64 0, i64 %131
  %133 = load i8, i8* %132, align 1
  %134 = sext i8 %133 to i32
  %135 = load i32, i32* %4, align 4
  %136 = sext i32 %135 to i64
  %137 = getelementptr inbounds [20 x [101 x i8]], [20 x [101 x i8]]* %3, i64 0, i64 %136
  %138 = load i32, i32* %9, align 4
  %139 = sub nsw i32 %138, 1
  %140 = sext i32 %139 to i64
  %141 = getelementptr inbounds [101 x i8], [101 x i8]* %137, i64 0, i64 %140
  %142 = load i8, i8* %141, align 1
  %143 = sext i8 %142 to i32
  %144 = sub nsw i32 %134, %143
  %145 = add nsw i32 %144, 48
  %146 = add nsw i32 %145, 10
  %147 = trunc i32 %146 to i8
  %148 = load i32, i32* %4, align 4
  %149 = sext i32 %148 to i64
  %150 = getelementptr inbounds [20 x [101 x i8]], [20 x [101 x i8]]* %2, i64 0, i64 %149
  %151 = load i32, i32* %8, align 4
  %152 = sub nsw i32 %151, 1
  %153 = sext i32 %152 to i64
  %154 = getelementptr inbounds [101 x i8], [101 x i8]* %150, i64 0, i64 %153
  store i8 %147, i8* %154, align 1
  br label %155

155:                                              ; preds = %109, %58
  %156 = load i32, i32* %9, align 4
  %157 = add nsw i32 %156, -1
  store i32 %157, i32* %9, align 4
  %158 = load i32, i32* %8, align 4
  %159 = add nsw i32 %158, -1
  store i32 %159, i32* %8, align 4
  br label %35

160:                                              ; preds = %35
  store i32 0, i32* %6, align 4
  %161 = load i32, i32* %4, align 4
  %162 = sext i32 %161 to i64
  %163 = getelementptr inbounds [20 x [101 x i8]], [20 x [101 x i8]]* %2, i64 0, i64 %162
  %164 = getelementptr inbounds [101 x i8], [101 x i8]* %163, i64 0, i64 0
  %165 = call i64 @strlen(i8* %164) #3
  %166 = trunc i64 %165 to i32
  store i32 %166, i32* %8, align 4
  br label %167

167:                                              ; preds = %160, %181
  %168 = load i32, i32* %4, align 4
  %169 = sext i32 %168 to i64
  %170 = getelementptr inbounds [20 x [101 x i8]], [20 x [101 x i8]]* %2, i64 0, i64 %169
  %171 = load i32, i32* %6, align 4
  %172 = sext i32 %171 to i64
  %173 = getelementptr inbounds [101 x i8], [101 x i8]* %170, i64 0, i64 %172
  %174 = load i8, i8* %173, align 1
  %175 = sext i8 %174 to i32
  %176 = icmp eq i32 %175, 48
  br i1 %176, label %177, label %180

177:                                              ; preds = %167
  %178 = load i32, i32* %6, align 4
  %179 = add nsw i32 %178, 1
  store i32 %179, i32* %6, align 4
  br label %181

180:                                              ; preds = %167
  br label %182

181:                                              ; preds = %177
  br label %167

182:                                              ; preds = %180
  %183 = load i32, i32* %6, align 4
  store i32 %183, i32* %7, align 4
  br label %184

184:                                              ; preds = %199, %182
  %185 = load i32, i32* %7, align 4
  %186 = load i32, i32* %8, align 4
  %187 = sub nsw i32 %186, 1
  %188 = icmp sle i32 %185, %187
  br i1 %188, label %189, label %202

189:                                              ; preds = %184
  %190 = load i32, i32* %4, align 4
  %191 = sext i32 %190 to i64
  %192 = getelementptr inbounds [20 x [101 x i8]], [20 x [101 x i8]]* %2, i64 0, i64 %191
  %193 = load i32, i32* %7, align 4
  %194 = sext i32 %193 to i64
  %195 = getelementptr inbounds [101 x i8], [101 x i8]* %192, i64 0, i64 %194
  %196 = load i8, i8* %195, align 1
  %197 = sext i8 %196 to i32
  %198 = call i32 (i8*, ...) @printf(i8* getelementptr inbounds ([3 x i8], [3 x i8]* @.str.2, i64 0, i64 0), i32 %197)
  br label %199

199:                                              ; preds = %189
  %200 = load i32, i32* %7, align 4
  %201 = add nsw i32 %200, 1
  store i32 %201, i32* %7, align 4
  br label %184

202:                                              ; preds = %184
  %203 = call i32 (i8*, ...) @printf(i8* getelementptr inbounds ([2 x i8], [2 x i8]* @.str.3, i64 0, i64 0))
  br label %204

204:                                              ; preds = %202
  %205 = load i32, i32* %4, align 4
  %206 = add nsw i32 %205, 1
  store i32 %206, i32* %4, align 4
  br label %11

207:                                              ; preds = %11
  ret void
}

declare dso_local i32 @__isoc99_scanf(i8*, ...) #1

; Function Attrs: nounwind readonly
declare dso_local i64 @strlen(i8*) #2

declare dso_local i32 @printf(i8*, ...) #1


!llvm.module.flags = !{!0}
!llvm.ident = !{!1}

!0 = !{i32 1, !"wchar_size", i32 4}
!1 = !{!"clang version 10.0.0-4ubuntu1 "}
